target datalayout = "e-m:e-p270:32:32-p271:32:32-p272:64:64-i64:64-i128:128-f80:128-n8:16:32:64-S128"
target triple = "x86_64-pc-linux-gnu"

%struct.IMCContext = type { [2 x %struct.IMCChannel], [256 x float], [30 x float], %struct.GetBitContext, ptr, %struct.BswapDSPContext, ptr, ptr, ptr, [8 x i8], [256 x float], i32, [32 x i8], [32 x i8], [31 x float], [31 x float], ptr, [8 x i8] }
%struct.IMCChannel = type { [32 x float], [32 x float], [32 x float], [32 x float], [32 x float], [32 x float], [32 x float], [256 x float], [32 x i32], [32 x i32], [256 x i32], [32 x i32], [32 x i32], [32 x i32], [32 x i32], [32 x i32], [32 x i32], [256 x i32], [256 x i32], i32, [12 x i8], [128 x float] }
%struct.GetBitContext = type { ptr, ptr, i32, i32, i32 }
%struct.BswapDSPContext = type { ptr, ptr }

; Function Attrs: alwaysinline nounwind uwtable
define internal double @ff_exp10(double noundef %0) #7 {
  %2 = alloca double, align 8
  store double %0, ptr %2, align 8, !tbaa !80
  %3 = load double, ptr %2, align 8, !tbaa !80
  %4 = fmul nsz double 0x400A934F0979A371, %3
  %5 = call nsz double @llvm.exp2.f64(double %4)
  ret double %5
}

; Function Attrs: inlinehint nounwind uwtable
define internal double @freq2bark(double noundef %0) #6 {
  %2 = alloca double, align 8
  store double %0, ptr %2, align 8, !tbaa !80
  %3 = load double, ptr %2, align 8, !tbaa !80
  %4 = fdiv nsz double %3, 7.500000e+03
  %5 = load double, ptr %2, align 8, !tbaa !80
  %6 = fdiv nsz double %5, 7.500000e+03
  %7 = fmul nsz double %4, %6
  %8 = call nsz double @llvm.atan.f64(double %7)
  %9 = load double, ptr %2, align 8, !tbaa !80
  %10 = fmul nsz double %9, 7.600000e-04
  %11 = call nsz double @llvm.atan.f64(double %10)
  %12 = fmul nsz double 1.300000e+01, %11
  %13 = call nsz double @llvm.fmuladd.f64(double 3.500000e+00, double %8, double %12)
  ret double %13
}

; Function Attrs: cold nounwind optsize uwtable
define internal void @iac_generate_tabs(ptr noundef %0, i32 noundef %1) #0 {
  %3 = alloca ptr, align 8
  %4 = alloca i32, align 4
  %5 = alloca [32 x double], align 16
  %6 = alloca [32 x double], align 16
  %7 = alloca [32 x double], align 16
  %8 = alloca double, align 8
  %9 = alloca double, align 8
  %10 = alloca double, align 8
  %11 = alloca double, align 8
  %12 = alloca double, align 8
  %13 = alloca double, align 8
  %14 = alloca double, align 8
  %15 = alloca i32, align 4
  %16 = alloca i32, align 4
  store ptr %0, ptr %3, align 8, !tbaa !29
  store i32 %1, ptr %4, align 4, !tbaa !39
  call void @llvm.lifetime.start.p0(i64 256, ptr %5) #10
  call void @llvm.lifetime.start.p0(i64 256, ptr %6) #10
  call void @llvm.lifetime.start.p0(i64 256, ptr %7) #10
  call void @llvm.lifetime.start.p0(i64 8, ptr %8) #10
  %17 = load i32, ptr %4, align 4, !tbaa !39
  %18 = sitofp i32 %17 to double
  %19 = fdiv nsz double %18, 1.024000e+03
  store double %19, ptr %8, align 8, !tbaa !80
  call void @llvm.lifetime.start.p0(i64 8, ptr %9) #10
  %20 = load i32, ptr %4, align 4, !tbaa !39
  %21 = sitofp i32 %20 to double
  %22 = fmul nsz double %21, 5.000000e-01
  store double %22, ptr %9, align 8, !tbaa !80
  call void @llvm.lifetime.start.p0(i64 8, ptr %10) #10
  call void @llvm.lifetime.start.p0(i64 8, ptr %11) #10
  call void @llvm.lifetime.start.p0(i64 8, ptr %12) #10
  store double 0.000000e+00, ptr %12, align 8, !tbaa !80
  call void @llvm.lifetime.start.p0(i64 8, ptr %13) #10
  call void @llvm.lifetime.start.p0(i64 8, ptr %14) #10
  call void @llvm.lifetime.start.p0(i64 4, ptr %15) #10
  call void @llvm.lifetime.start.p0(i64 4, ptr %16) #10
  store i32 0, ptr %15, align 4, !tbaa !39
  br label %23

23:                                               ; preds = %118, %2
  %24 = load i32, ptr %15, align 4, !tbaa !39
  %25 = icmp slt i32 %24, 32
  br i1 %25, label %26, label %121

26:                                               ; preds = %23
  %27 = load i32, ptr %15, align 4, !tbaa !39
  %28 = sext i32 %27 to i64
  %29 = getelementptr inbounds [33 x i16], ptr @band_tab, i64 0, i64 %28
  %30 = load i16, ptr %29, align 2, !tbaa !82
  %31 = zext i16 %30 to i32
  %32 = load i32, ptr %15, align 4, !tbaa !39
  %33 = add nsw i32 %32, 1
  %34 = sext i32 %33 to i64
  %35 = getelementptr inbounds [33 x i16], ptr @band_tab, i64 0, i64 %34
  %36 = load i16, ptr %35, align 2, !tbaa !82
  %37 = zext i16 %36 to i32
  %38 = add nsw i32 %31, %37
  %39 = sub nsw i32 %38, 1
  %40 = sitofp i32 %39 to double
  %41 = load double, ptr %8, align 8, !tbaa !80
  %42 = fmul nsz double %40, %41
  store double %42, ptr %10, align 8, !tbaa !80
  %43 = load double, ptr %10, align 8, !tbaa !80
  %44 = call nsz double @freq2bark(double noundef %43)
  store double %44, ptr %11, align 8, !tbaa !80
  %45 = load i32, ptr %15, align 4, !tbaa !39
  %46 = icmp sgt i32 %45, 0
  br i1 %46, label %47, label %71

47:                                               ; preds = %26
  %48 = load double, ptr %11, align 8, !tbaa !80
  %49 = load double, ptr %12, align 8, !tbaa !80
  %50 = fsub nsz double %48, %49
  store double %50, ptr %14, align 8, !tbaa !80
  %51 = load double, ptr %14, align 8, !tbaa !80
  %52 = fmul nsz double -1.000000e+00, %51
  %53 = call nsz double @ff_exp10(double noundef %52)
  %54 = fptrunc nsz double %53 to float
  %55 = load ptr, ptr %3, align 8, !tbaa !29
  %56 = getelementptr inbounds nuw %struct.IMCContext, ptr %55, i32 0, i32 14
  %57 = load i32, ptr %15, align 4, !tbaa !39
  %58 = sub nsw i32 %57, 1
  %59 = sext i32 %58 to i64
  %60 = getelementptr inbounds [31 x float], ptr %56, i64 0, i64 %59
  store float %54, ptr %60, align 4, !tbaa !31
  %61 = load double, ptr %14, align 8, !tbaa !80
  %62 = fmul nsz double -2.700000e+00, %61
  %63 = call nsz double @ff_exp10(double noundef %62)
  %64 = fptrunc nsz double %63 to float
  %65 = load ptr, ptr %3, align 8, !tbaa !29
  %66 = getelementptr inbounds nuw %struct.IMCContext, ptr %65, i32 0, i32 15
  %67 = load i32, ptr %15, align 4, !tbaa !39
  %68 = sub nsw i32 %67, 1
  %69 = sext i32 %68 to i64
  %70 = getelementptr inbounds [31 x float], ptr %66, i64 0, i64 %69
  store float %64, ptr %70, align 4, !tbaa !31
  br label %71

71:                                               ; preds = %47, %26
  %72 = load double, ptr %11, align 8, !tbaa !80
  store double %72, ptr %12, align 8, !tbaa !80
  %73 = load double, ptr %10, align 8, !tbaa !80
  %74 = load i32, ptr %15, align 4, !tbaa !39
  %75 = sext i32 %74 to i64
  %76 = getelementptr inbounds [32 x double], ptr %6, i64 0, i64 %75
  store double %73, ptr %76, align 8, !tbaa !80
  %77 = load double, ptr %10, align 8, !tbaa !80
  store double %77, ptr %13, align 8, !tbaa !80
  br label %78

78:                                               ; preds = %92, %71
  %79 = load double, ptr %13, align 8, !tbaa !80
  %80 = load double, ptr %9, align 8, !tbaa !80
  %81 = fcmp nsz olt double %79, %80
  br i1 %81, label %82, label %93

82:                                               ; preds = %78
  %83 = load double, ptr %13, align 8, !tbaa !80
  %84 = fadd nsz double %83, 5.000000e-01
  store double %84, ptr %13, align 8, !tbaa !80
  %85 = load double, ptr %13, align 8, !tbaa !80
  %86 = call nsz double @freq2bark(double noundef %85)
  store double %86, ptr %14, align 8, !tbaa !80
  %87 = load double, ptr %14, align 8, !tbaa !80
  %88 = load double, ptr %11, align 8, !tbaa !80
  %89 = fadd nsz double %88, 5.000000e-01
  %90 = fcmp nsz ogt double %87, %89
  br i1 %90, label %91, label %92

91:                                               ; preds = %82
  br label %93

92:                                               ; preds = %82
  br label %78, !llvm.loop !84

93:                                               ; preds = %91, %78
  %94 = load double, ptr %13, align 8, !tbaa !80
  %95 = load i32, ptr %15, align 4, !tbaa !39
  %96 = sext i32 %95 to i64
  %97 = getelementptr inbounds [32 x double], ptr %7, i64 0, i64 %96
  store double %94, ptr %97, align 8, !tbaa !80
  %98 = load double, ptr %10, align 8, !tbaa !80
  store double %98, ptr %13, align 8, !tbaa !80
  br label %99

99:                                               ; preds = %112, %93
  %100 = load double, ptr %13, align 8, !tbaa !80
  %101 = fcmp nsz ogt double %100, 0.000000e+00
  br i1 %101, label %102, label %113

102:                                              ; preds = %99
  %103 = load double, ptr %13, align 8, !tbaa !80
  %104 = fsub nsz double %103, 5.000000e-01
  store double %104, ptr %13, align 8, !tbaa !80
  %105 = load double, ptr %13, align 8, !tbaa !80
  %106 = call nsz double @freq2bark(double noundef %105)
  store double %106, ptr %14, align 8, !tbaa !80
  %107 = load double, ptr %14, align 8, !tbaa !80
  %108 = load double, ptr %11, align 8, !tbaa !80
  %109 = fsub nsz double %108, 5.000000e-01
  %110 = fcmp nsz ole double %107, %109
  br i1 %110, label %111, label %112

111:                                              ; preds = %102
  br label %113

112:                                              ; preds = %102
  br label %99, !llvm.loop !85

113:                                              ; preds = %111, %99
  %114 = load double, ptr %13, align 8, !tbaa !80
  %115 = load i32, ptr %15, align 4, !tbaa !39
  %116 = sext i32 %115 to i64
  %117 = getelementptr inbounds [32 x double], ptr %5, i64 0, i64 %116
  store double %114, ptr %117, align 8, !tbaa !80
  br label %118

118:                                              ; preds = %113
  %119 = load i32, ptr %15, align 4, !tbaa !39
  %120 = add nsw i32 %119, 1
  store i32 %120, ptr %15, align 4, !tbaa !39
  br label %23, !llvm.loop !86

121:                                              ; preds = %23
  store i32 0, ptr %15, align 4, !tbaa !39
  br label %122

122:                                              ; preds = %184, %121
  %123 = load i32, ptr %15, align 4, !tbaa !39
  %124 = icmp slt i32 %123, 32
  br i1 %124, label %125, label %187

125:                                              ; preds = %122
  %126 = load i32, ptr %15, align 4, !tbaa !39
  %127 = sext i32 %126 to i64
  %128 = getelementptr inbounds [32 x double], ptr %7, i64 0, i64 %127
  %129 = load double, ptr %128, align 8, !tbaa !80
  store double %129, ptr %10, align 8, !tbaa !80
  store i32 31, ptr %16, align 4, !tbaa !39
  br label %130

130:                                              ; preds = %143, %125
  %131 = load i32, ptr %16, align 4, !tbaa !39
  %132 = icmp sgt i32 %131, 0
  br i1 %132, label %133, label %140

133:                                              ; preds = %130
  %134 = load double, ptr %10, align 8, !tbaa !80
  %135 = load i32, ptr %16, align 4, !tbaa !39
  %136 = sext i32 %135 to i64
  %137 = getelementptr inbounds [32 x double], ptr %6, i64 0, i64 %136
  %138 = load double, ptr %137, align 8, !tbaa !80
  %139 = fcmp nsz ole double %134, %138
  br label %140

140:                                              ; preds = %133, %130
  %141 = phi i1 [ false, %130 ], [ %139, %133 ]
  br i1 %141, label %142, label %146

142:                                              ; preds = %140
  br label %143

143:                                              ; preds = %142
  %144 = load i32, ptr %16, align 4, !tbaa !39
  %145 = add nsw i32 %144, -1
  store i32 %145, ptr %16, align 4, !tbaa !39
  br label %130, !llvm.loop !87

146:                                              ; preds = %140
  %147 = load i32, ptr %16, align 4, !tbaa !39
  %148 = add nsw i32 %147, 1
  %149 = trunc i32 %148 to i8
  %150 = load ptr, ptr %3, align 8, !tbaa !29
  %151 = getelementptr inbounds nuw %struct.IMCContext, ptr %150, i32 0, i32 12
  %152 = load i32, ptr %15, align 4, !tbaa !39
  %153 = sext i32 %152 to i64
  %154 = getelementptr inbounds [32 x i8], ptr %151, i64 0, i64 %153
  store i8 %149, ptr %154, align 1, !tbaa !36
  %155 = load i32, ptr %15, align 4, !tbaa !39
  %156 = sext i32 %155 to i64
  %157 = getelementptr inbounds [32 x double], ptr %5, i64 0, i64 %156
  %158 = load double, ptr %157, align 8, !tbaa !80
  store double %158, ptr %10, align 8, !tbaa !80
  store i32 0, ptr %16, align 4, !tbaa !39
  br label %159

159:                                              ; preds = %172, %146
  %160 = load i32, ptr %16, align 4, !tbaa !39
  %161 = icmp slt i32 %160, 32
  br i1 %161, label %162, label %169

162:                                              ; preds = %159
  %163 = load double, ptr %10, align 8, !tbaa !80
  %164 = load i32, ptr %16, align 4, !tbaa !39
  %165 = sext i32 %164 to i64
  %166 = getelementptr inbounds [32 x double], ptr %6, i64 0, i64 %165
  %167 = load double, ptr %166, align 8, !tbaa !80
  %168 = fcmp nsz oge double %163, %167
  br label %169

169:                                              ; preds = %162, %159
  %170 = phi i1 [ false, %159 ], [ %168, %162 ]
  br i1 %170, label %171, label %175

171:                                              ; preds = %169
  br label %172

172:                                              ; preds = %171
  %173 = load i32, ptr %16, align 4, !tbaa !39
  %174 = add nsw i32 %173, 1
  store i32 %174, ptr %16, align 4, !tbaa !39
  br label %159, !llvm.loop !88

175:                                              ; preds = %169
  %176 = load i32, ptr %16, align 4, !tbaa !39
  %177 = sub nsw i32 %176, 1
  %178 = trunc i32 %177 to i8
  %179 = load ptr, ptr %3, align 8, !tbaa !29
  %180 = getelementptr inbounds nuw %struct.IMCContext, ptr %179, i32 0, i32 13
  %181 = load i32, ptr %15, align 4, !tbaa !39
  %182 = sext i32 %181 to i64
  %183 = getelementptr inbounds [32 x i8], ptr %180, i64 0, i64 %182
  store i8 %178, ptr %183, align 1, !tbaa !36
  br label %184

184:                                              ; preds = %175
  %185 = load i32, ptr %15, align 4, !tbaa !39
  %186 = add nsw i32 %185, 1
  store i32 %186, ptr %15, align 4, !tbaa !39
  br label %122, !llvm.loop !89

187:                                              ; preds = %122
  call void @llvm.lifetime.end.p0(i64 4, ptr %16) #10
  call void @llvm.lifetime.end.p0(i64 4, ptr %15) #10
  call void @llvm.lifetime.end.p0(i64 8, ptr %14) #10
  call void @llvm.lifetime.end.p0(i64 8, ptr %13) #10
  call void @llvm.lifetime.end.p0(i64 8, ptr %12) #10
  call void @llvm.lifetime.end.p0(i64 8, ptr %11) #10
  call void @llvm.lifetime.end.p0(i64 8, ptr %10) #10
  call void @llvm.lifetime.end.p0(i64 8, ptr %9) #10
  call void @llvm.lifetime.end.p0(i64 8, ptr %8) #10
  call void @llvm.lifetime.end.p0(i64 256, ptr %7) #10
  call void @llvm.lifetime.end.p0(i64 256, ptr %6) #10
  call void @llvm.lifetime.end.p0(i64 256, ptr %5) #10
  ret void
}