; Function Attrs: cold nofree norecurse nosync nounwind optsize memory(argmem: write) uwtable
define internal fastcc void @iac_generate_tabs(ptr noundef writeonly captures(none) %0, i32 noundef %1) unnamed_addr #7 {
  %3 = alloca [32 x double], align 16
  %4 = alloca [32 x double], align 16
  %5 = alloca [32 x double], align 16
  call void @llvm.lifetime.start.p0(i64 256, ptr nonnull %3) #10
  call void @llvm.lifetime.start.p0(i64 256, ptr nonnull %4) #10
  call void @llvm.lifetime.start.p0(i64 256, ptr nonnull %5) #10
  %6 = sitofp i32 %1 to double
  %7 = fmul nsz double %6, 0x3F50000000000000
  %8 = fmul nsz double %6, 5.000000e-01
  %9 = getelementptr inbounds nuw i8, ptr %0, i64 15412
  %10 = getelementptr inbounds nuw i8, ptr %0, i64 15536
  br label %13

.preheader:                                       ; preds = %.loopexit
  %11 = getelementptr inbounds nuw i8, ptr %0, i64 15348
  %12 = getelementptr inbounds nuw i8, ptr %0, i64 15380
  br label %72

13:                                               ; preds = %2, %.loopexit
  %14 = phi i16 [ 0, %2 ], [ %17, %.loopexit ]
  %indvars.iv = phi i64 [ 0, %2 ], [ %indvars.iv.next, %.loopexit ]
  %.06165 = phi double [ 0.000000e+00, %2 ], [ %29, %.loopexit ]
  %15 = zext i16 %14 to i32
  %indvars.iv.next = add nuw nsw i64 %indvars.iv, 1
  %16 = getelementptr inbounds nuw [33 x i16], ptr @band_tab, i64 0, i64 %indvars.iv.next
  %17 = load i16, ptr %16, align 2, !tbaa !79
  %18 = zext i16 %17 to i32
  %19 = add nsw i32 %15, -1
  %20 = add nsw i32 %19, %18
  %21 = sitofp i32 %20 to double
  %22 = fmul nsz double %7, %21
  %23 = fdiv nsz double %22, 7.500000e+03
  %24 = fmul nsz double %23, %23
  %25 = tail call nsz double @llvm.atan.f64(double %24)
  %26 = fmul nsz double %22, 7.600000e-04
  %27 = tail call nsz double @llvm.atan.f64(double %26)
  %28 = fmul nsz double %27, 1.300000e+01
  %29 = tail call nsz double @llvm.fmuladd.f64(double %25, double 3.500000e+00, double %28)
  %.not = icmp eq i64 %indvars.iv, 0
  br i1 %.not, label %42, label %30

30:                                               ; preds = %13
  %31 = fsub nsz double %29, %.06165
  %32 = fmul nsz double %31, 0xC00A934F0979A371
  %33 = tail call nsz double @llvm.exp2.f64(double %32)
  %34 = fptrunc nsz double %33 to float
  %35 = add nsw i64 %indvars.iv, -1
  %36 = getelementptr inbounds nuw [31 x float], ptr %9, i64 0, i64 %35
  store float %34, ptr %36, align 4, !tbaa !27
  %37 = fmul nsz double %31, -2.700000e+00
  %38 = fmul nsz double %37, 0x400A934F0979A371
  %39 = tail call nsz double @llvm.exp2.f64(double %38)
  %40 = fptrunc nsz double %39 to float
  %41 = getelementptr inbounds nuw [31 x float], ptr %10, i64 0, i64 %35
  store float %40, ptr %41, align 4, !tbaa !27
  br label %42

42:                                               ; preds = %30, %13
  %43 = getelementptr inbounds nuw [32 x double], ptr %4, i64 0, i64 %indvars.iv
  store double %22, ptr %43, align 8, !tbaa !133
  %44 = fadd nsz double %29, 5.000000e-01
  br label %45

45:                                               ; preds = %47, %42
  %.059 = phi nsz double [ %22, %42 ], [ %48, %47 ]
  %46 = fcmp nsz olt double %.059, %8
  br i1 %46, label %47, label %57

47:                                               ; preds = %45
  %48 = fadd nsz double %.059, 5.000000e-01
  %49 = fdiv nsz double %48, 7.500000e+03
  %50 = fmul nsz double %49, %49
  %51 = tail call nsz double @llvm.atan.f64(double %50)
  %52 = fmul nsz double %48, 7.600000e-04
  %53 = tail call nsz double @llvm.atan.f64(double %52)
  %54 = fmul nsz double %53, 1.300000e+01
  %55 = tail call nsz double @llvm.fmuladd.f64(double %51, double 3.500000e+00, double %54)
  %56 = fcmp nsz ogt double %55, %44
  br i1 %56, label %57, label %45, !llvm.loop !135

57:                                               ; preds = %47, %45
  %.160 = phi nsz double [ %48, %47 ], [ %.059, %45 ]
  %58 = getelementptr inbounds nuw [32 x double], ptr %5, i64 0, i64 %indvars.iv
  store double %.160, ptr %58, align 8, !tbaa !133
  %.old3 = fcmp nsz ogt double %22, 0.000000e+00
  br i1 %.old3, label %.preheader64, label %.loopexit

.preheader64:                                     ; preds = %57
  %59 = fadd nsz double %29, -5.000000e-01
  br label %60

60:                                               ; preds = %.preheader64, %60
  %.2 = phi nsz double [ %61, %60 ], [ %22, %.preheader64 ]
  %61 = fadd nsz double %.2, -5.000000e-01
  %62 = fdiv nsz double %61, 7.500000e+03
  %63 = fmul nsz double %62, %62
  %64 = tail call nsz double @llvm.atan.f64(double %63)
  %65 = fmul nsz double %61, 7.600000e-04
  %66 = tail call nsz double @llvm.atan.f64(double %65)
  %67 = fmul nsz double %66, 1.300000e+01
  %68 = tail call nsz double @llvm.fmuladd.f64(double %64, double 3.500000e+00, double %67)
  %69 = fcmp nsz ugt double %68, %59
  %70 = fcmp nsz ogt double %61, 0.000000e+00
  %or.cond = and i1 %70, %69
  br i1 %or.cond, label %60, label %.loopexit, !llvm.loop !136

.loopexit:                                        ; preds = %60, %57
  %.3 = phi nsz double [ %22, %57 ], [ %61, %60 ]
  %71 = getelementptr inbounds nuw [32 x double], ptr %3, i64 0, i64 %indvars.iv
  store double %.3, ptr %71, align 8, !tbaa !133
  %exitcond.not = icmp eq i64 %indvars.iv.next, 32
  br i1 %exitcond.not, label %.preheader, label %13, !llvm.loop !137

72:                                               ; preds = %.preheader, %.critedge2
  %indvars.iv78 = phi i64 [ 0, %.preheader ], [ %indvars.iv.next79, %.critedge2 ]
  %73 = getelementptr inbounds nuw [32 x double], ptr %5, i64 0, i64 %indvars.iv78
  %74 = load double, ptr %73, align 8, !tbaa !133
  br label %75

75:                                               ; preds = %72, %79
  %indvars.iv71 = phi i64 [ 31, %72 ], [ %indvars.iv.next72, %79 ]
  %76 = getelementptr inbounds nuw [32 x double], ptr %4, i64 0, i64 %indvars.iv71
  %77 = load double, ptr %76, align 8, !tbaa !133
  %78 = fcmp nsz ugt double %74, %77
  br i1 %78, label %.critedge.split.loop.exit82, label %79

79:                                               ; preds = %75
  %indvars.iv.next72 = add nsw i64 %indvars.iv71, -1
  %80 = icmp samesign ugt i64 %indvars.iv71, 1
  br i1 %80, label %75, label %.critedge, !llvm.loop !138

.critedge.split.loop.exit82:                      ; preds = %75
  %81 = trunc i64 %indvars.iv71 to i8
  %82 = add i8 %81, 1
  br label %.critedge

.critedge:                                        ; preds = %79, %.critedge.split.loop.exit82
  %.0.lcssa = phi i8 [ %82, %.critedge.split.loop.exit82 ], [ 1, %79 ]
  %83 = getelementptr inbounds nuw [32 x i8], ptr %11, i64 0, i64 %indvars.iv78
  store i8 %.0.lcssa, ptr %83, align 1, !tbaa !31
  %84 = getelementptr inbounds nuw [32 x double], ptr %3, i64 0, i64 %indvars.iv78
  %85 = load double, ptr %84, align 8, !tbaa !133
  br label %86

86:                                               ; preds = %.critedge, %90
  %indvars.iv74 = phi i64 [ 0, %.critedge ], [ %indvars.iv.next75, %90 ]
  %87 = getelementptr inbounds nuw [32 x double], ptr %4, i64 0, i64 %indvars.iv74
  %88 = load double, ptr %87, align 8, !tbaa !133
  %89 = fcmp nsz ult double %85, %88
  br i1 %89, label %.critedge2.split.loop.exit84, label %90

90:                                               ; preds = %86
  %indvars.iv.next75 = add nuw nsw i64 %indvars.iv74, 1
  %exitcond77.not = icmp eq i64 %indvars.iv.next75, 32
  br i1 %exitcond77.not, label %.critedge2, label %86, !llvm.loop !139

.critedge2.split.loop.exit84:                     ; preds = %86
  %91 = trunc i64 %indvars.iv74 to i8
  %92 = add i8 %91, -1
  br label %.critedge2

.critedge2:                                       ; preds = %90, %.critedge2.split.loop.exit84
  %.1.lcssa = phi i8 [ %92, %.critedge2.split.loop.exit84 ], [ 31, %90 ]
  %93 = getelementptr inbounds nuw [32 x i8], ptr %12, i64 0, i64 %indvars.iv78
  store i8 %.1.lcssa, ptr %93, align 1, !tbaa !31
  %indvars.iv.next79 = add nuw nsw i64 %indvars.iv78, 1
  %exitcond81.not = icmp eq i64 %indvars.iv.next79, 32
  br i1 %exitcond81.not, label %94, label %72, !llvm.loop !140

94:                                               ; preds = %.critedge2
  call void @llvm.lifetime.end.p0(i64 256, ptr nonnull %5) #10
  call void @llvm.lifetime.end.p0(i64 256, ptr nonnull %4) #10
  call void @llvm.lifetime.end.p0(i64 256, ptr nonnull %3) #10
  ret void
}